(dp1
S'output'
p2
S'The "end" tag is unmatched, please check if you have a starting "block" tag'
p3
sS'layer'
p4
S'ParserContainer'
p5
sS'code'
p6
S"{{left_sidebar_enabled,right_sidebar_enabled=False,('message' in globals())}}\n{{extend 'layout.html'}}\n\n\n{{end}}\n"
p7
sS'snapshot'
p8
(dp9
sS'traceback'
p10
S'None\n'
p11
s.